---
triple:          'arm64-apple-darwin'
binary-path:     '/Users/vittalayer/Desktop/Upsolves/dp.prac/982C'
relocations:
  - { offsetInCU: 0x1D8BF, offset: 0x1D8BF, size: 0x8, addend: 0x0, symName: __ZStL8__ioinit, symObjAddr: 0x88B50, symBinAddr: 0x100010530, symSize: 0x0 }
  - { offsetInCU: 0x1DC1B, offset: 0x1DC1B, size: 0x8, addend: 0x0, symName: _arr, symObjAddr: 0x88B58, symBinAddr: 0x100010538, symSize: 0x0 }
  - { offsetInCU: 0x1DD60, offset: 0x1DD60, size: 0x8, addend: 0x0, symName: _vis, symObjAddr: 0x2D2A90, symBinAddr: 0x10025A470, symSize: 0x0 }
  - { offsetInCU: 0x1DF1D, offset: 0x1DF1D, size: 0x8, addend: 0x0, symName: _grp, symObjAddr: 0x2D2AA8, symBinAddr: 0x10025A488, symSize: 0x0 }
  - { offsetInCU: 0x1E21B, offset: 0x1E21B, size: 0x8, addend: 0x0, symName: __GLOBAL__sub_I_982C.cpp, symObjAddr: 0x2BF8, symBinAddr: 0x10000931C, symSize: 0x14 }
  - { offsetInCU: 0x1E245, offset: 0x1E245, size: 0x8, addend: 0x0, symName: __Z41__static_initialization_and_destruction_0v, symObjAddr: 0x2B14, symBinAddr: 0x100009238, symSize: 0xE4 }
  - { offsetInCU: 0x1E31C, offset: 0x1E31C, size: 0x8, addend: 0x0, symName: __ZNSt3mapIxSt6vectorIxSaIxEESt4lessIxESaISt4pairIKxS2_EEED1Ev, symObjAddr: 0x2A20, symBinAddr: 0x100009218, symSize: 0x20 }
  - { offsetInCU: 0x1E304, offset: 0x1E304, size: 0x8, addend: 0x0, symName: __ZNSt10_Head_baseILm0ERKxLb0EE7_M_headERS2_, symObjAddr: 0x2A08, symBinAddr: 0x100009200, symSize: 0x18 }
  - { offsetInCU: 0x1E32D, offset: 0x1E32D, size: 0x8, addend: 0x0, symName: __ZNSt11_Tuple_implILm0EJRKxEE7_M_headERS2_, symObjAddr: 0x29EC, symBinAddr: 0x1000091E4, symSize: 0x1C }
  - { offsetInCU: 0x1E357, offset: 0x1E357, size: 0x8, addend: 0x0, symName: __ZSt12__get_helperILm0ERKxJEERT0_RSt11_Tuple_implIXT_EJS2_DpT1_EE, symObjAddr: 0x29D0, symBinAddr: 0x1000091C8, symSize: 0x1C }
  - { offsetInCU: 0x1E3E1, offset: 0x1E3E1, size: 0x8, addend: 0x0, symName: __ZNSt12_Vector_baseIxSaIxEE12_Vector_implC1Ev, symObjAddr: 0x2998, symBinAddr: 0x100009190, symSize: 0x38 }
  - { offsetInCU: 0x1E425, offset: 0x1E425, size: 0x8, addend: 0x0, symName: __ZSt7forwardIRKxEOT_RNSt16remove_referenceIS2_E4typeE, symObjAddr: 0x2984, symBinAddr: 0x10000917C, symSize: 0x14 }
  - { offsetInCU: 0x1E457, offset: 0x1E457, size: 0x8, addend: 0x0, symName: __ZSt3getILm0EJRKxEERNSt13tuple_elementIXT_ESt5tupleIJDpT0_EEE4typeERS6_, symObjAddr: 0x2968, symBinAddr: 0x100009160, symSize: 0x1C }
  - { offsetInCU: 0x1E57B, offset: 0x1E57B, size: 0x8, addend: 0x0, symName: __ZNSt4pairIKxSt6vectorIxSaIxEEEC1IJRS0_EJLm0EEJEJEEERSt5tupleIJDpT_EERS7_IJDpT1_EESt12_Index_tupleIJXspT0_EEESG_IJXspT2_EEE, symObjAddr: 0x290C, symBinAddr: 0x100009104, symSize: 0x5C }
  - { offsetInCU: 0x1E5A5, offset: 0x1E5A5, size: 0x8, addend: 0x0, symName: __ZNSt6vectorIxSaIxEEC1Ev, symObjAddr: 0x28EC, symBinAddr: 0x1000090E4, symSize: 0x20 }
  - { offsetInCU: 0x1E5EC, offset: 0x1E5EC, size: 0x8, addend: 0x0, symName: __ZNSt12_Vector_baseIxSaIxEEC2Ev, symObjAddr: 0x28CC, symBinAddr: 0x1000090C4, symSize: 0x20 }
  - { offsetInCU: 0x1E5F2, offset: 0x1E5F2, size: 0x8, addend: 0x0, symName: __ZSt9__fill_a1IPxxEN9__gnu_cxx11__enable_ifIXsrSt11__is_scalarIT0_E7__valueEvE6__typeET_S8_RKS4_, symObjAddr: 0x2874, symBinAddr: 0x10000906C, symSize: 0x58 }
  - { offsetInCU: 0x1E70E, offset: 0x1E70E, size: 0x8, addend: 0x0, symName: __ZNSt4pairIKxSt6vectorIxSaIxEEEC1IJRS0_EJEEESt21piecewise_construct_tSt5tupleIJDpT_EES8_IJDpT0_EE, symObjAddr: 0x2838, symBinAddr: 0x100009030, symSize: 0x3C }
  - { offsetInCU: 0x1E74B, offset: 0x1E74B, size: 0x8, addend: 0x0, symName: __ZNSt11_Tuple_implILm0EJRKxEEC2EOS2_, symObjAddr: 0x2810, symBinAddr: 0x100009008, symSize: 0x28 }
  - { offsetInCU: 0x1E755, offset: 0x1E755, size: 0x8, addend: 0x0, symName: __ZSt8__fill_aIPxxEvT_S1_RKT0_, symObjAddr: 0x27E0, symBinAddr: 0x100008FD8, symSize: 0x30 }
  - { offsetInCU: 0x1E7BC, offset: 0x1E7BC, size: 0x8, addend: 0x0, symName: __ZNK9__gnu_cxx16__aligned_membufISt4pairIKxSt6vectorIxSaIxEEEE7_M_addrEv, symObjAddr: 0x27CC, symBinAddr: 0x100008FC4, symSize: 0x14 }
  - { offsetInCU: 0x1E87D, offset: 0x1E87D, size: 0x8, addend: 0x0, symName: __ZNSt5tupleIJRKxEEC1EOS2_, symObjAddr: 0x27A4, symBinAddr: 0x100008F9C, symSize: 0x28 }
  - { offsetInCU: 0x1E896, offset: 0x1E896, size: 0x8, addend: 0x0, symName: __ZNSt15__new_allocatorISt13_Rb_tree_nodeISt4pairIKxSt6vectorIxSaIxEEEEE8allocateEmPKv, symObjAddr: 0x2728, symBinAddr: 0x100008F20, symSize: 0x7C }
  - { offsetInCU: 0x1E95B, offset: 0x1E95B, size: 0x8, addend: 0x0, symName: __ZNSt6vectorIxSaIxEED1Ev, symObjAddr: 0x26CC, symBinAddr: 0x100008EC4, symSize: 0x5C }
  - { offsetInCU: 0x1E99E, offset: 0x1E99E, size: 0x8, addend: 0x0, symName: __ZSt10__fill_n_aIPxmxET_S1_T0_RKT1_St26random_access_iterator_tag, symObjAddr: 0x2668, symBinAddr: 0x100008E60, symSize: 0x64 }
  - { offsetInCU: 0x1EA24, offset: 0x1EA24, size: 0x8, addend: 0x0, symName: __ZSt14__relocate_a_1IxxENSt9enable_ifIXsrSt24__is_bitwise_relocatableIT_vE5valueEPS2_E4typeES4_S4_S4_RSaIT0_E, symObjAddr: 0x2604, symBinAddr: 0x100008DFC, symSize: 0x64 }
  - { offsetInCU: 0x1EAA4, offset: 0x1EAA4, size: 0x8, addend: 0x0, symName: __ZSt12__niter_baseIPxET_S1_, symObjAddr: 0x25F0, symBinAddr: 0x100008DE8, symSize: 0x14 }
  - { offsetInCU: 0x1EADB, offset: 0x1EADB, size: 0x8, addend: 0x0, symName: __ZNKSt12_Vector_baseIxSaIxEE19_M_get_Tp_allocatorEv, symObjAddr: 0x25DC, symBinAddr: 0x100008DD4, symSize: 0x14 }
  - { offsetInCU: 0x1EB05, offset: 0x1EB05, size: 0x8, addend: 0x0, symName: __ZNK9__gnu_cxx16__aligned_membufISt4pairIKxSt6vectorIxSaIxEEEE6_M_ptrEv, symObjAddr: 0x25C0, symBinAddr: 0x100008DB8, symSize: 0x1C }
  - { offsetInCU: 0x1EB37, offset: 0x1EB37, size: 0x8, addend: 0x0, symName: __ZSt7forwardIRPSt13_Rb_tree_nodeISt4pairIKxSt6vectorIxSaIxEEEEEOT_RNSt16remove_referenceISA_E4typeE, symObjAddr: 0x25AC, symBinAddr: 0x100008DA4, symSize: 0x14 }
  - { offsetInCU: 0x1EBE9, offset: 0x1EBE9, size: 0x8, addend: 0x0, symName: __ZNSt15__new_allocatorISt13_Rb_tree_nodeISt4pairIKxSt6vectorIxSaIxEEEEE10deallocateEPS7_m, symObjAddr: 0x257C, symBinAddr: 0x100008D74, symSize: 0x30 }
  - { offsetInCU: 0x1ECA7, offset: 0x1ECA7, size: 0x8, addend: 0x0, symName: __ZNSt4pairIKxSt6vectorIxSaIxEEED1Ev, symObjAddr: 0x2558, symBinAddr: 0x100008D50, symSize: 0x24 }
  - { offsetInCU: 0x1ECA9, offset: 0x1ECA9, size: 0x8, addend: 0x0, symName: __ZSt6fill_nIPxmxET_S1_T0_RKT1_, symObjAddr: 0x2510, symBinAddr: 0x100008D08, symSize: 0x48 }
  - { offsetInCU: 0x1ED35, offset: 0x1ED35, size: 0x8, addend: 0x0, symName: __ZNSt15__new_allocatorIxE8allocateEmPKv, symObjAddr: 0x2494, symBinAddr: 0x100008C8C, symSize: 0x7C }
  - { offsetInCU: 0x1EDBD, offset: 0x1EDBD, size: 0x8, addend: 0x0, symName: __ZSt12__relocate_aIPxS0_SaIxEET0_T_S3_S2_RT1_, symObjAddr: 0x2438, symBinAddr: 0x100008C30, symSize: 0x5C }
  - { offsetInCU: 0x1EE39, offset: 0x1EE39, size: 0x8, addend: 0x0, symName: __ZNK9__gnu_cxx17__normal_iteratorIPxSt6vectorIxSaIxEEE4baseEv, symObjAddr: 0x2424, symBinAddr: 0x100008C1C, symSize: 0x14 }
  - { offsetInCU: 0x1EEC5, offset: 0x1EEC5, size: 0x8, addend: 0x0, symName: __ZN9__gnu_cxx17__normal_iteratorIPxSt6vectorIxSaIxEEEC1ERKS1_, symObjAddr: 0x23FC, symBinAddr: 0x100008BF4, symSize: 0x28 }
  - { offsetInCU: 0x1EEBA, offset: 0x1EEBA, size: 0x8, addend: 0x0, symName: __ZNKSt6vectorIxSaIxEE8max_sizeEv, symObjAddr: 0x23DC, symBinAddr: 0x100008BD4, symSize: 0x20 }
  - { offsetInCU: 0x1EEE0, offset: 0x1EEE0, size: 0x8, addend: 0x0, symName: __ZNSt12_Destroy_auxILb1EE9__destroyIPxEEvT_S3_, symObjAddr: 0x23C4, symBinAddr: 0x100008BBC, symSize: 0x18 }
  - { offsetInCU: 0x1EF18, offset: 0x1EF18, size: 0x8, addend: 0x0, symName: __ZNKSt10_Select1stISt4pairIKxSt6vectorIxSaIxEEEEclERKS5_, symObjAddr: 0x23AC, symBinAddr: 0x100008BA4, symSize: 0x18 }
  - { offsetInCU: 0x1EF53, offset: 0x1EF53, size: 0x8, addend: 0x0, symName: __ZNKSt13_Rb_tree_nodeISt4pairIKxSt6vectorIxSaIxEEEE9_M_valptrEv, symObjAddr: 0x238C, symBinAddr: 0x100008B84, symSize: 0x20 }
  - { offsetInCU: 0x1EF7F, offset: 0x1EF7F, size: 0x8, addend: 0x0, symName: __ZSt7forwardIRPSt18_Rb_tree_node_baseEOT_RNSt16remove_referenceIS3_E4typeE, symObjAddr: 0x2378, symBinAddr: 0x100008B70, symSize: 0x14 }
  - { offsetInCU: 0x1F060, offset: 0x1F060, size: 0x8, addend: 0x0, symName: __ZNSt4pairIPSt18_Rb_tree_node_baseS1_EC1IRPSt13_Rb_tree_nodeIS_IKxSt6vectorIxSaIxEEEERS1_Lb1EEEOT_OT0_, symObjAddr: 0x2330, symBinAddr: 0x100008B28, symSize: 0x48 }
  - { offsetInCU: 0x1F047, offset: 0x1F047, size: 0x8, addend: 0x0, symName: __ZNSt8_Rb_treeIxSt4pairIKxSt6vectorIxSaIxEEESt10_Select1stIS5_ESt4lessIxESaIS5_EE5beginEv, symObjAddr: 0x2308, symBinAddr: 0x100008B00, symSize: 0x28 }
  - { offsetInCU: 0x1F071, offset: 0x1F071, size: 0x8, addend: 0x0, symName: __ZNSt8_Rb_treeIxSt4pairIKxSt6vectorIxSaIxEEESt10_Select1stIS5_ESt4lessIxESaIS5_EE17_M_construct_nodeIJRKSt21piecewise_construct_tSt5tupleIJRS1_EESG_IJEEEEEvPSt13_Rb_tree_nodeIS5_EDpOT_, symObjAddr: 0x218C, symBinAddr: 0x100008984, symSize: 0x17C }
  - { offsetInCU: 0x1F172, offset: 0x1F172, size: 0x8, addend: 0x0, symName: __ZNSt8_Rb_treeIxSt4pairIKxSt6vectorIxSaIxEEESt10_Select1stIS5_ESt4lessIxESaIS5_EE11_M_get_nodeEv, symObjAddr: 0x2150, symBinAddr: 0x100008948, symSize: 0x3C }
  - { offsetInCU: 0x1F1CE, offset: 0x1F1CE, size: 0x8, addend: 0x0, symName: __ZN9__gnu_cxx16__aligned_membufISt4pairIKxSt6vectorIxSaIxEEEE7_M_addrEv, symObjAddr: 0x213C, symBinAddr: 0x100008934, symSize: 0x14 }
  - { offsetInCU: 0x1F256, offset: 0x1F256, size: 0x8, addend: 0x0, symName: __ZNSt8_Rb_treeIxSt4pairIKxSt6vectorIxSaIxEEESt10_Select1stIS5_ESt4lessIxESaIS5_EE21_M_get_Node_allocatorEv, symObjAddr: 0x2128, symBinAddr: 0x100008920, symSize: 0x14 }
  - { offsetInCU: 0x1F27C, offset: 0x1F27C, size: 0x8, addend: 0x0, symName: __ZNSt22__uninitialized_fill_nILb1EE15__uninit_fill_nIPxmxEET_S3_T0_RKT1_, symObjAddr: 0x20FC, symBinAddr: 0x1000088F4, symSize: 0x2C }
  - { offsetInCU: 0x1F2E7, offset: 0x1F2E7, size: 0x8, addend: 0x0, symName: __ZNSt15__new_allocatorIxE10deallocateEPxm, symObjAddr: 0x20CC, symBinAddr: 0x1000088C4, symSize: 0x30 }
  - { offsetInCU: 0x1F36B, offset: 0x1F36B, size: 0x8, addend: 0x0, symName: __ZNK9__gnu_cxx17__normal_iteratorIPxSt6vectorIxSaIxEEEdeEv, symObjAddr: 0x20B4, symBinAddr: 0x1000088AC, symSize: 0x18 }
  - { offsetInCU: 0x1F395, offset: 0x1F395, size: 0x8, addend: 0x0, symName: __ZNK9__gnu_cxx17__normal_iteratorIPxSt6vectorIxSaIxEEEmiEl, symObjAddr: 0x2070, symBinAddr: 0x100008868, symSize: 0x44 }
  - { offsetInCU: 0x1F3CC, offset: 0x1F3CC, size: 0x8, addend: 0x0, symName: __ZNSt6vectorIxSaIxEE11_S_relocateEPxS2_S2_RS0_, symObjAddr: 0x203C, symBinAddr: 0x100008834, symSize: 0x34 }
  - { offsetInCU: 0x1F429, offset: 0x1F429, size: 0x8, addend: 0x0, symName: __ZSt12__to_addressIxEPT_S1_, symObjAddr: 0x2028, symBinAddr: 0x100008820, symSize: 0x14 }
  - { offsetInCU: 0x1F461, offset: 0x1F461, size: 0x8, addend: 0x0, symName: __ZN9__gnu_cxxmiIPxSt6vectorIxSaIxEEEENS_17__normal_iteratorIT_T0_E15difference_typeERKS8_SB_, symObjAddr: 0x1FE8, symBinAddr: 0x1000087E0, symSize: 0x40 }
  - { offsetInCU: 0x1F4B2, offset: 0x1F4B2, size: 0x8, addend: 0x0, symName: __ZNSt6vectorIxSaIxEE5beginEv, symObjAddr: 0x1FC4, symBinAddr: 0x1000087BC, symSize: 0x24 }
  - { offsetInCU: 0x1F4DC, offset: 0x1F4DC, size: 0x8, addend: 0x0, symName: __ZNSt6vectorIxSaIxEE3endEv, symObjAddr: 0x1F9C, symBinAddr: 0x100008794, symSize: 0x28 }
  - { offsetInCU: 0x1F506, offset: 0x1F506, size: 0x8, addend: 0x0, symName: __ZNKSt6vectorIxSaIxEE12_M_check_lenEmPKc, symObjAddr: 0x1ECC, symBinAddr: 0x1000086C4, symSize: 0xD0 }
  - { offsetInCU: 0x1F5A1, offset: 0x1F5A1, size: 0x8, addend: 0x0, symName: __ZSt8_DestroyIPxEvT_S1_, symObjAddr: 0x1EA4, symBinAddr: 0x10000869C, symSize: 0x28 }
  - { offsetInCU: 0x1F5E7, offset: 0x1F5E7, size: 0x8, addend: 0x0, symName: __ZNSt8_Rb_treeIxSt4pairIKxSt6vectorIxSaIxEEESt10_Select1stIS5_ESt4lessIxESaIS5_EE14_M_insert_nodeEPSt18_Rb_tree_node_baseSD_PSt13_Rb_tree_nodeIS5_E, symObjAddr: 0x1DD4, symBinAddr: 0x1000085CC, symSize: 0xD0 }
  - { offsetInCU: 0x1F651, offset: 0x1F651, size: 0x8, addend: 0x0, symName: __ZNSt8_Rb_treeIxSt4pairIKxSt6vectorIxSaIxEEESt10_Select1stIS5_ESt4lessIxESaIS5_EE6_S_keyEPKSt13_Rb_tree_nodeIS5_E, symObjAddr: 0x1DAC, symBinAddr: 0x1000085A4, symSize: 0x28 }
  - { offsetInCU: 0x1F67F, offset: 0x1F67F, size: 0x8, addend: 0x0, symName: __ZNSt17_Rb_tree_iteratorISt4pairIKxSt6vectorIxSaIxEEEEppEv, symObjAddr: 0x1D7C, symBinAddr: 0x100008574, symSize: 0x30 }
  - { offsetInCU: 0x1F6A9, offset: 0x1F6A9, size: 0x8, addend: 0x0, symName: __ZNSt17_Rb_tree_iteratorISt4pairIKxSt6vectorIxSaIxEEEEmmEv, symObjAddr: 0x1D4C, symBinAddr: 0x100008544, symSize: 0x30 }
  - { offsetInCU: 0x1F755, offset: 0x1F755, size: 0x8, addend: 0x0, symName: __ZNSt4pairIPSt18_Rb_tree_node_baseS1_EC1IRS1_S4_Lb1EEEOT_OT0_, symObjAddr: 0x1D04, symBinAddr: 0x1000084FC, symSize: 0x48 }
  - { offsetInCU: 0x1F765, offset: 0x1F765, size: 0x8, addend: 0x0, symName: __ZNSt8_Rb_treeIxSt4pairIKxSt6vectorIxSaIxEEESt10_Select1stIS5_ESt4lessIxESaIS5_EE11_M_leftmostEv, symObjAddr: 0x1CEC, symBinAddr: 0x1000084E4, symSize: 0x18 }
  - { offsetInCU: 0x1F78F, offset: 0x1F78F, size: 0x8, addend: 0x0, symName: __ZNSt8_Rb_treeIxSt4pairIKxSt6vectorIxSaIxEEESt10_Select1stIS5_ESt4lessIxESaIS5_EE24_M_get_insert_unique_posERS1_, symObjAddr: 0x1B94, symBinAddr: 0x10000838C, symSize: 0x158 }
  - { offsetInCU: 0x1F895, offset: 0x1F895, size: 0x8, addend: 0x0, symName: __ZNSt4pairIPSt18_Rb_tree_node_baseS1_EC1IS1_S1_Lb1EEERKS1_S5_, symObjAddr: 0x1B58, symBinAddr: 0x100008350, symSize: 0x3C }
  - { offsetInCU: 0x1F8A1, offset: 0x1F8A1, size: 0x8, addend: 0x0, symName: __ZNSt8_Rb_treeIxSt4pairIKxSt6vectorIxSaIxEEESt10_Select1stIS5_ESt4lessIxESaIS5_EE6_S_keyEPKSt18_Rb_tree_node_base, symObjAddr: 0x1B3C, symBinAddr: 0x100008334, symSize: 0x1C }
  - { offsetInCU: 0x1F8CF, offset: 0x1F8CF, size: 0x8, addend: 0x0, symName: __ZNSt8_Rb_treeIxSt4pairIKxSt6vectorIxSaIxEEESt10_Select1stIS5_ESt4lessIxESaIS5_EE12_M_rightmostEv, symObjAddr: 0x1B24, symBinAddr: 0x10000831C, symSize: 0x18 }
  - { offsetInCU: 0x1F8F9, offset: 0x1F8F9, size: 0x8, addend: 0x0, symName: __ZNKSt8_Rb_treeIxSt4pairIKxSt6vectorIxSaIxEEESt10_Select1stIS5_ESt4lessIxESaIS5_EE4sizeEv, symObjAddr: 0x1B0C, symBinAddr: 0x100008304, symSize: 0x18 }
  - { offsetInCU: 0x1F923, offset: 0x1F923, size: 0x8, addend: 0x0, symName: __ZNKSt23_Rb_tree_const_iteratorISt4pairIKxSt6vectorIxSaIxEEEE13_M_const_castEv, symObjAddr: 0x1AE4, symBinAddr: 0x1000082DC, symSize: 0x28 }
  - { offsetInCU: 0x1F94D, offset: 0x1F94D, size: 0x8, addend: 0x0, symName: __ZNSt8_Rb_treeIxSt4pairIKxSt6vectorIxSaIxEEESt10_Select1stIS5_ESt4lessIxESaIS5_EE14_M_create_nodeIJRKSt21piecewise_construct_tSt5tupleIJRS1_EESG_IJEEEEEPSt13_Rb_tree_nodeIS5_EDpOT_, symObjAddr: 0x1A74, symBinAddr: 0x10000826C, symSize: 0x70 }
  - { offsetInCU: 0x1FA07, offset: 0x1FA07, size: 0x8, addend: 0x0, symName: __ZNSt10_Head_baseILm0ERKxLb0EEC2ES1_, symObjAddr: 0x1A50, symBinAddr: 0x100008248, symSize: 0x24 }
  - { offsetInCU: 0x1FA15, offset: 0x1FA15, size: 0x8, addend: 0x0, symName: __ZN9__gnu_cxx16__aligned_membufISt4pairIKxSt6vectorIxSaIxEEEE6_M_ptrEv, symObjAddr: 0x1A34, symBinAddr: 0x10000822C, symSize: 0x1C }
  - { offsetInCU: 0x1FA3F, offset: 0x1FA3F, size: 0x8, addend: 0x0, symName: __ZNSt8_Rb_treeIxSt4pairIKxSt6vectorIxSaIxEEESt10_Select1stIS5_ESt4lessIxESaIS5_EE14_M_lower_boundEPSt13_Rb_tree_nodeIS5_EPSt18_Rb_tree_node_baseRS1_, symObjAddr: 0x1998, symBinAddr: 0x100008190, symSize: 0x9C }
  - { offsetInCU: 0x1FA9C, offset: 0x1FA9C, size: 0x8, addend: 0x0, symName: __ZNSt8_Rb_treeIxSt4pairIKxSt6vectorIxSaIxEEESt10_Select1stIS5_ESt4lessIxESaIS5_EE6_M_endEv, symObjAddr: 0x1980, symBinAddr: 0x100008178, symSize: 0x18 }
  - { offsetInCU: 0x1FAC6, offset: 0x1FAC6, size: 0x8, addend: 0x0, symName: __ZNSt8_Rb_treeIxSt4pairIKxSt6vectorIxSaIxEEESt10_Select1stIS5_ESt4lessIxESaIS5_EE11_M_put_nodeEPSt13_Rb_tree_nodeIS5_E, symObjAddr: 0x1934, symBinAddr: 0x10000812C, symSize: 0x4C }
  - { offsetInCU: 0x1FB37, offset: 0x1FB37, size: 0x8, addend: 0x0, symName: __ZNSt8_Rb_treeIxSt4pairIKxSt6vectorIxSaIxEEESt10_Select1stIS5_ESt4lessIxESaIS5_EE15_M_destroy_nodeEPSt13_Rb_tree_nodeIS5_E, symObjAddr: 0x18D4, symBinAddr: 0x1000080CC, symSize: 0x60 }
  - { offsetInCU: 0x1FBC8, offset: 0x1FBC8, size: 0x8, addend: 0x0, symName: __ZSt20uninitialized_fill_nIPxmxET_S1_T0_RKT1_, symObjAddr: 0x18A0, symBinAddr: 0x100008098, symSize: 0x34 }
  - { offsetInCU: 0x1FC76, offset: 0x1FC76, size: 0x8, addend: 0x0, symName: __ZNSt12_Vector_baseIxSaIxEE11_M_allocateEm, symObjAddr: 0x1850, symBinAddr: 0x100008048, symSize: 0x50 }
  - { offsetInCU: 0x1FD27, offset: 0x1FD27, size: 0x8, addend: 0x0, symName: __ZNSt12_Vector_baseIxSaIxEE17_Vector_impl_dataC2Ev, symObjAddr: 0x1824, symBinAddr: 0x10000801C, symSize: 0x2C }
  - { offsetInCU: 0x1FD4F, offset: 0x1FD4F, size: 0x8, addend: 0x0, symName: __ZNSt6vectorIxSaIxEE4backEv, symObjAddr: 0x17EC, symBinAddr: 0x100007FE4, symSize: 0x38 }
  - { offsetInCU: 0x1FD79, offset: 0x1FD79, size: 0x8, addend: 0x0, symName: __ZNSt6vectorIxSaIxEE17_M_realloc_appendIJxEEEvDpOT_, symObjAddr: 0x1630, symBinAddr: 0x100007E28, symSize: 0x1BC }
  - { offsetInCU: 0x1FF41, offset: 0x1FF41, size: 0x8, addend: 0x0, symName: __ZZNSt6vectorIxSaIxEE17_M_realloc_appendIJxEEEvDpOT_EN6_GuardC1EPxmRS0_, symObjAddr: 0x158C, symBinAddr: 0x100007D84, symSize: 0x44 }
  - { offsetInCU: 0x1FF81, offset: 0x1FF81, size: 0x8, addend: 0x0, symName: __ZZNSt6vectorIxSaIxEE17_M_realloc_appendIJxEEEvDpOT_EN6_GuardD1Ev, symObjAddr: 0x15D0, symBinAddr: 0x100007DC8, symSize: 0x60 }
  - { offsetInCU: 0x2007B, offset: 0x2007B, size: 0x8, addend: 0x0, symName: __ZSt7forwardIxEOT_RNSt16remove_referenceIS0_E4typeE, symObjAddr: 0x1578, symBinAddr: 0x100007D70, symSize: 0x14 }
  - { offsetInCU: 0x20161, offset: 0x20161, size: 0x8, addend: 0x0, symName: __ZNSt17_Rb_tree_iteratorISt4pairIKxSt6vectorIxSaIxEEEEC1EPSt18_Rb_tree_node_base, symObjAddr: 0x1554, symBinAddr: 0x100007D4C, symSize: 0x24 }
  - { offsetInCU: 0x20143, offset: 0x20143, size: 0x8, addend: 0x0, symName: __ZNSt8_Rb_treeIxSt4pairIKxSt6vectorIxSaIxEEESt10_Select1stIS5_ESt4lessIxESaIS5_EE10_Auto_node9_M_insertES0_IPSt18_Rb_tree_node_baseSE_E, symObjAddr: 0x1508, symBinAddr: 0x100007D00, symSize: 0x4C }
  - { offsetInCU: 0x2018F, offset: 0x2018F, size: 0x8, addend: 0x0, symName: __ZNKSt8_Rb_treeIxSt4pairIKxSt6vectorIxSaIxEEESt10_Select1stIS5_ESt4lessIxESaIS5_EE10_Auto_node6_M_keyEv, symObjAddr: 0x14E8, symBinAddr: 0x100007CE0, symSize: 0x20 }
  - { offsetInCU: 0x201B9, offset: 0x201B9, size: 0x8, addend: 0x0, symName: __ZNSt8_Rb_treeIxSt4pairIKxSt6vectorIxSaIxEEESt10_Select1stIS5_ESt4lessIxESaIS5_EE29_M_get_insert_hint_unique_posESt23_Rb_tree_const_iteratorIS5_ERS1_, symObjAddr: 0x11C4, symBinAddr: 0x1000079BC, symSize: 0x324 }
  - { offsetInCU: 0x202E6, offset: 0x202E6, size: 0x8, addend: 0x0, symName: __ZNSt8_Rb_treeIxSt4pairIKxSt6vectorIxSaIxEEESt10_Select1stIS5_ESt4lessIxESaIS5_EE10_Auto_nodeD1Ev, symObjAddr: 0x1180, symBinAddr: 0x100007978, symSize: 0x44 }
  - { offsetInCU: 0x2039D, offset: 0x2039D, size: 0x8, addend: 0x0, symName: __ZNSt8_Rb_treeIxSt4pairIKxSt6vectorIxSaIxEEESt10_Select1stIS5_ESt4lessIxESaIS5_EE10_Auto_nodeC1IJRKSt21piecewise_construct_tSt5tupleIJRS1_EESH_IJEEEEERSB_DpOT_, symObjAddr: 0x1104, symBinAddr: 0x1000078FC, symSize: 0x7C }
  - { offsetInCU: 0x20369, offset: 0x20369, size: 0x8, addend: 0x0, symName: __ZSt7forwardISt5tupleIJEEEOT_RNSt16remove_referenceIS2_E4typeE, symObjAddr: 0x10F0, symBinAddr: 0x1000078E8, symSize: 0x14 }
  - { offsetInCU: 0x203A1, offset: 0x203A1, size: 0x8, addend: 0x0, symName: __ZSt7forwardISt5tupleIJRKxEEEOT_RNSt16remove_referenceIS4_E4typeE, symObjAddr: 0x10DC, symBinAddr: 0x1000078D4, symSize: 0x14 }
  - { offsetInCU: 0x203D9, offset: 0x203D9, size: 0x8, addend: 0x0, symName: __ZSt7forwardIRKSt21piecewise_construct_tEOT_RNSt16remove_referenceIS3_E4typeE, symObjAddr: 0x10C8, symBinAddr: 0x1000078C0, symSize: 0x14 }
  - { offsetInCU: 0x20457, offset: 0x20457, size: 0x8, addend: 0x0, symName: __ZNSt11_Tuple_implILm0EJRKxEEC2ES1_, symObjAddr: 0x10A0, symBinAddr: 0x100007898, symSize: 0x28 }
  - { offsetInCU: 0x20466, offset: 0x20466, size: 0x8, addend: 0x0, symName: __ZNSt13_Rb_tree_nodeISt4pairIKxSt6vectorIxSaIxEEEE9_M_valptrEv, symObjAddr: 0x1080, symBinAddr: 0x100007878, symSize: 0x20 }
  - { offsetInCU: 0x20490, offset: 0x20490, size: 0x8, addend: 0x0, symName: __ZNKSt8_Rb_treeIxSt4pairIKxSt6vectorIxSaIxEEESt10_Select1stIS5_ESt4lessIxESaIS5_EE8key_compEv, symObjAddr: 0x1068, symBinAddr: 0x100007860, symSize: 0x18 }
  - { offsetInCU: 0x204BA, offset: 0x204BA, size: 0x8, addend: 0x0, symName: __ZNSt8_Rb_treeIxSt4pairIKxSt6vectorIxSaIxEEESt10_Select1stIS5_ESt4lessIxESaIS5_EE3endEv, symObjAddr: 0x1040, symBinAddr: 0x100007838, symSize: 0x28 }
  - { offsetInCU: 0x204E4, offset: 0x204E4, size: 0x8, addend: 0x0, symName: __ZNSt8_Rb_treeIxSt4pairIKxSt6vectorIxSaIxEEESt10_Select1stIS5_ESt4lessIxESaIS5_EE11lower_boundERS1_, symObjAddr: 0xFF8, symBinAddr: 0x1000077F0, symSize: 0x48 }
  - { offsetInCU: 0x2051F, offset: 0x2051F, size: 0x8, addend: 0x0, symName: __ZNKSt8_Rb_treeIxSt4pairIKxSt6vectorIxSaIxEEESt10_Select1stIS5_ESt4lessIxESaIS5_EE9_M_mbeginEv, symObjAddr: 0xFE0, symBinAddr: 0x1000077D8, symSize: 0x18 }
  - { offsetInCU: 0x20549, offset: 0x20549, size: 0x8, addend: 0x0, symName: __ZNSt8_Rb_treeIxSt4pairIKxSt6vectorIxSaIxEEESt10_Select1stIS5_ESt4lessIxESaIS5_EE12_M_drop_nodeEPSt13_Rb_tree_nodeIS5_E, symObjAddr: 0xFAC, symBinAddr: 0x1000077A4, symSize: 0x34 }
  - { offsetInCU: 0x20580, offset: 0x20580, size: 0x8, addend: 0x0, symName: __ZNSt8_Rb_treeIxSt4pairIKxSt6vectorIxSaIxEEESt10_Select1stIS5_ESt4lessIxESaIS5_EE7_S_leftEPSt18_Rb_tree_node_base, symObjAddr: 0xF94, symBinAddr: 0x10000778C, symSize: 0x18 }
  - { offsetInCU: 0x205AA, offset: 0x205AA, size: 0x8, addend: 0x0, symName: __ZNSt8_Rb_treeIxSt4pairIKxSt6vectorIxSaIxEEESt10_Select1stIS5_ESt4lessIxESaIS5_EE8_S_rightEPSt18_Rb_tree_node_base, symObjAddr: 0xF7C, symBinAddr: 0x100007774, symSize: 0x18 }
  - { offsetInCU: 0x205EA, offset: 0x205EA, size: 0x8, addend: 0x0, symName: __ZSt24__uninitialized_fill_n_aIPxmxxET_S1_T0_RKT1_RSaIT2_E, symObjAddr: 0xF4C, symBinAddr: 0x100007744, symSize: 0x30 }
  - { offsetInCU: 0x20667, offset: 0x20667, size: 0x8, addend: 0x0, symName: __ZNSt12_Vector_baseIxSaIxEE19_M_get_Tp_allocatorEv, symObjAddr: 0xF38, symBinAddr: 0x100007730, symSize: 0x14 }
  - { offsetInCU: 0x20691, offset: 0x20691, size: 0x8, addend: 0x0, symName: __ZNSt12_Vector_baseIxSaIxEE13_M_deallocateEPxm, symObjAddr: 0xEE0, symBinAddr: 0x1000076D8, symSize: 0x58 }
  - { offsetInCU: 0x20713, offset: 0x20713, size: 0x8, addend: 0x0, symName: __ZNSt12_Vector_baseIxSaIxEE17_M_create_storageEm, symObjAddr: 0xE80, symBinAddr: 0x100007678, symSize: 0x60 }
  - { offsetInCU: 0x207A3, offset: 0x207A3, size: 0x8, addend: 0x0, symName: __ZNSt12_Vector_baseIxSaIxEE12_Vector_implC1ERKS0_, symObjAddr: 0xE34, symBinAddr: 0x10000762C, symSize: 0x4C }
  - { offsetInCU: 0x2081B, offset: 0x2081B, size: 0x8, addend: 0x0, symName: __ZNSt6vectorIxSaIxEE11_S_max_sizeERKS0_, symObjAddr: 0xDE0, symBinAddr: 0x1000075D8, symSize: 0x54 }
  - { offsetInCU: 0x208D6, offset: 0x208D6, size: 0x8, addend: 0x0, symName: __ZNSt6vectorIxSaIxEE12emplace_backIJxEEERxDpOT_, symObjAddr: 0xD08, symBinAddr: 0x100007500, symSize: 0xD8 }
  - { offsetInCU: 0x20988, offset: 0x20988, size: 0x8, addend: 0x0, symName: __ZSt4moveIRxEONSt16remove_referenceIT_E4typeEOS2_, symObjAddr: 0xCF4, symBinAddr: 0x1000074EC, symSize: 0x14 }
  - { offsetInCU: 0x209BE, offset: 0x209BE, size: 0x8, addend: 0x0, symName: __ZNSt6vectorIxSaIxEE15_M_erase_at_endEPx, symObjAddr: 0xC6C, symBinAddr: 0x100007464, symSize: 0x88 }
  - { offsetInCU: 0x20A53, offset: 0x20A53, size: 0x8, addend: 0x0, symName: __ZNSt8_Rb_treeIxSt4pairIKxSt6vectorIxSaIxEEESt10_Select1stIS5_ESt4lessIxESaIS5_EE22_M_emplace_hint_uniqueIJRKSt21piecewise_construct_tSt5tupleIJRS1_EESG_IJEEEEESt17_Rb_tree_iteratorIS5_ESt23_Rb_tree_const_iteratorIS5_EDpOT_, symObjAddr: 0xB94, symBinAddr: 0x10000738C, symSize: 0xD8 }
  - { offsetInCU: 0x20B6A, offset: 0x20B6A, size: 0x8, addend: 0x0, symName: __ZNSt23_Rb_tree_const_iteratorISt4pairIKxSt6vectorIxSaIxEEEEC1ERKSt17_Rb_tree_iteratorIS5_E, symObjAddr: 0xB6C, symBinAddr: 0x100007364, symSize: 0x28 }
  - { offsetInCU: 0x20B92, offset: 0x20B92, size: 0x8, addend: 0x0, symName: __ZNSt5tupleIJRKxEEC1ILb1ELb1EEES1_, symObjAddr: 0xB44, symBinAddr: 0x10000733C, symSize: 0x28 }
  - { offsetInCU: 0x20BAC, offset: 0x20BAC, size: 0x8, addend: 0x0, symName: __ZNKSt4lessIxEclERKxS2_, symObjAddr: 0xB10, symBinAddr: 0x100007308, symSize: 0x34 }
  - { offsetInCU: 0x20BF8, offset: 0x20BF8, size: 0x8, addend: 0x0, symName: __ZNKSt17_Rb_tree_iteratorISt4pairIKxSt6vectorIxSaIxEEEEdeEv, symObjAddr: 0xAF0, symBinAddr: 0x1000072E8, symSize: 0x20 }
  - { offsetInCU: 0x20C22, offset: 0x20C22, size: 0x8, addend: 0x0, symName: __ZNKSt3mapIxSt6vectorIxSaIxEESt4lessIxESaISt4pairIKxS2_EEE8key_compEv, symObjAddr: 0xAC4, symBinAddr: 0x1000072BC, symSize: 0x2C }
  - { offsetInCU: 0x20C4E, offset: 0x20C4E, size: 0x8, addend: 0x0, symName: __ZSteqRKSt17_Rb_tree_iteratorISt4pairIKxSt6vectorIxSaIxEEEES8_, symObjAddr: 0xA94, symBinAddr: 0x10000728C, symSize: 0x30 }
  - { offsetInCU: 0x20C8D, offset: 0x20C8D, size: 0x8, addend: 0x0, symName: __ZNSt3mapIxSt6vectorIxSaIxEESt4lessIxESaISt4pairIKxS2_EEE3endEv, symObjAddr: 0xA78, symBinAddr: 0x100007270, symSize: 0x1C }
  - { offsetInCU: 0x20CB7, offset: 0x20CB7, size: 0x8, addend: 0x0, symName: __ZNSt3mapIxSt6vectorIxSaIxEESt4lessIxESaISt4pairIKxS2_EEE11lower_boundERS6_, symObjAddr: 0xA54, symBinAddr: 0x10000724C, symSize: 0x24 }
  - { offsetInCU: 0x20CF2, offset: 0x20CF2, size: 0x8, addend: 0x0, symName: __ZNSt8_Rb_treeIxSt4pairIKxSt6vectorIxSaIxEEESt10_Select1stIS5_ESt4lessIxESaIS5_EE8_M_beginEv, symObjAddr: 0xA38, symBinAddr: 0x100007230, symSize: 0x1C }
  - { offsetInCU: 0x20D1C, offset: 0x20D1C, size: 0x8, addend: 0x0, symName: __ZNSt8_Rb_treeIxSt4pairIKxSt6vectorIxSaIxEEESt10_Select1stIS5_ESt4lessIxESaIS5_EE8_M_eraseEPSt13_Rb_tree_nodeIS5_E, symObjAddr: 0x9D4, symBinAddr: 0x1000071CC, symSize: 0x64 }
  - { offsetInCU: 0x20DE7, offset: 0x20DE7, size: 0x8, addend: 0x0, symName: __ZNSt15__new_allocatorISt13_Rb_tree_nodeISt4pairIKxSt6vectorIxSaIxEEEEED2Ev, symObjAddr: 0x9C0, symBinAddr: 0x1000071B8, symSize: 0x14 }
  - { offsetInCU: 0x20E07, offset: 0x20E07, size: 0x8, addend: 0x0, symName: __ZNSt20_Rb_tree_key_compareISt4lessIxEEC2Ev, symObjAddr: 0x9AC, symBinAddr: 0x1000071A4, symSize: 0x14 }
  - { offsetInCU: 0x20E1B, offset: 0x20E1B, size: 0x8, addend: 0x0, symName: __ZNSt6vectorIxSaIxEE18_M_fill_initializeEmRKx, symObjAddr: 0x954, symBinAddr: 0x10000714C, symSize: 0x58 }
  - { offsetInCU: 0x20EA7, offset: 0x20EA7, size: 0x8, addend: 0x0, symName: __ZNSt12_Vector_baseIxSaIxEED2Ev, symObjAddr: 0x904, symBinAddr: 0x1000070FC, symSize: 0x50 }
  - { offsetInCU: 0x20F08, offset: 0x20F08, size: 0x8, addend: 0x0, symName: __ZNSt12_Vector_baseIxSaIxEEC2EmRKS0_, symObjAddr: 0x8B0, symBinAddr: 0x1000070A8, symSize: 0x54 }
  - { offsetInCU: 0x20F70, offset: 0x20F70, size: 0x8, addend: 0x0, symName: __ZNSt12_Vector_baseIxSaIxEE12_Vector_implD1Ev, symObjAddr: 0x884, symBinAddr: 0x10000707C, symSize: 0x2C }
  - { offsetInCU: 0x20F8B, offset: 0x20F8B, size: 0x8, addend: 0x0, symName: __ZNSt6vectorIxSaIxEE17_S_check_init_lenEmRKS0_, symObjAddr: 0x800, symBinAddr: 0x100006FF8, symSize: 0x84 }
  - { offsetInCU: 0x2107F, offset: 0x2107F, size: 0x8, addend: 0x0, symName: __ZNSt15__new_allocatorIxED2Ev, symObjAddr: 0x7EC, symBinAddr: 0x100006FE4, symSize: 0x14 }
  - { offsetInCU: 0x210A1, offset: 0x210A1, size: 0x8, addend: 0x0, symName: __ZNSt6vectorIxSaIxEE9push_backEOx, symObjAddr: 0x7BC, symBinAddr: 0x100006FB4, symSize: 0x30 }
  - { offsetInCU: 0x210DC, offset: 0x210DC, size: 0x8, addend: 0x0, symName: __ZNSt6vectorIxSaIxEE5clearEv, symObjAddr: 0x790, symBinAddr: 0x100006F88, symSize: 0x2C }
  - { offsetInCU: 0x21102, offset: 0x21102, size: 0x8, addend: 0x0, symName: __ZSt3maxIxERKT_S2_S2_, symObjAddr: 0x758, symBinAddr: 0x100006F50, symSize: 0x38 }
  - { offsetInCU: 0x2114A, offset: 0x2114A, size: 0x8, addend: 0x0, symName: __ZNKSt6vectorIxSaIxEE4sizeEv, symObjAddr: 0x730, symBinAddr: 0x100006F28, symSize: 0x28 }
  - { offsetInCU: 0x21174, offset: 0x21174, size: 0x8, addend: 0x0, symName: __ZNSt3mapIxSt6vectorIxSaIxEESt4lessIxESaISt4pairIKxS2_EEEixERS6_, symObjAddr: 0x644, symBinAddr: 0x100006E3C, symSize: 0xEC }
  - { offsetInCU: 0x211C0, offset: 0x211C0, size: 0x8, addend: 0x0, symName: __ZNSt6vectorIxSaIxEEixEm, symObjAddr: 0x61C, symBinAddr: 0x100006E14, symSize: 0x28 }
  - { offsetInCU: 0x21271, offset: 0x21271, size: 0x8, addend: 0x0, symName: __ZNSt8_Rb_treeIxSt4pairIKxSt6vectorIxSaIxEEESt10_Select1stIS5_ESt4lessIxESaIS5_EED1Ev, symObjAddr: 0x5E8, symBinAddr: 0x100006DE0, symSize: 0x34 }
  - { offsetInCU: 0x212E9, offset: 0x212E9, size: 0x8, addend: 0x0, symName: __ZNSt8_Rb_treeIxSt4pairIKxSt6vectorIxSaIxEEESt10_Select1stIS5_ESt4lessIxESaIS5_EE13_Rb_tree_implIS9_Lb1EEC1Ev, symObjAddr: 0x5A4, symBinAddr: 0x100006D9C, symSize: 0x44 }
  - { offsetInCU: 0x2134D, offset: 0x2134D, size: 0x8, addend: 0x0, symName: __ZNSt6vectorIxSaIxEEC1EmRKxRKS0_, symObjAddr: 0x534, symBinAddr: 0x100006D2C, symSize: 0x70 }
  - { offsetInCU: 0x213A3, offset: 0x213A3, size: 0x8, addend: 0x0, symName: __ZSt3maxImERKT_S2_S2_, symObjAddr: 0x4FC, symBinAddr: 0x100006CF4, symSize: 0x38 }
  - { offsetInCU: 0x213F0, offset: 0x213F0, size: 0x8, addend: 0x0, symName: _main, symObjAddr: 0x48C, symBinAddr: 0x100006C84, symSize: 0x70 }
  - { offsetInCU: 0x21427, offset: 0x21427, size: 0x8, addend: 0x0, symName: __Z5solvev, symObjAddr: 0x278, symBinAddr: 0x100006A70, symSize: 0x214 }
  - { offsetInCU: 0x214E1, offset: 0x214E1, size: 0x8, addend: 0x0, symName: __Z3dfsx, symObjAddr: 0x14C, symBinAddr: 0x100006944, symSize: 0x12C }
  - { offsetInCU: 0x21590, offset: 0x21590, size: 0x8, addend: 0x0, symName: __ZNSt3mapIxSt6vectorIxSaIxEESt4lessIxESaISt4pairIKxS2_EEEC1Ev, symObjAddr: 0x12C, symBinAddr: 0x100006924, symSize: 0x20 }
  - { offsetInCU: 0x215E8, offset: 0x215E8, size: 0x8, addend: 0x0, symName: __ZNSt8_Rb_treeIxSt4pairIKxSt6vectorIxSaIxEEESt10_Select1stIS5_ESt4lessIxESaIS5_EEC1Ev, symObjAddr: 0x10C, symBinAddr: 0x100006904, symSize: 0x20 }
  - { offsetInCU: 0x2164E, offset: 0x2164E, size: 0x8, addend: 0x0, symName: __ZNSt8_Rb_treeIxSt4pairIKxSt6vectorIxSaIxEEESt10_Select1stIS5_ESt4lessIxESaIS5_EE13_Rb_tree_implIS9_Lb1EED1Ev, symObjAddr: 0xE0, symBinAddr: 0x1000068D8, symSize: 0x2C }
  - { offsetInCU: 0x2162E, offset: 0x2162E, size: 0x8, addend: 0x0, symName: __ZNSt15_Rb_tree_header8_M_resetEv, symObjAddr: 0xA4, symBinAddr: 0x10000689C, symSize: 0x3C }
  - { offsetInCU: 0x21689, offset: 0x21689, size: 0x8, addend: 0x0, symName: __ZNSt15_Rb_tree_headerC2Ev, symObjAddr: 0x7C, symBinAddr: 0x100006874, symSize: 0x28 }
  - { offsetInCU: 0x21694, offset: 0x21694, size: 0x8, addend: 0x0, symName: __ZSt3minImERKT_S2_S2_, symObjAddr: 0x44, symBinAddr: 0x10000683C, symSize: 0x38 }
  - { offsetInCU: 0x216E3, offset: 0x216E3, size: 0x8, addend: 0x0, symName: __ZdlPvS_, symObjAddr: 0x2C, symBinAddr: 0x100006824, symSize: 0x18 }
  - { offsetInCU: 0x21718, offset: 0x21718, size: 0x8, addend: 0x0, symName: __ZnwmPv, symObjAddr: 0x14, symBinAddr: 0x10000680C, symSize: 0x18 }
  - { offsetInCU: 0x21746, offset: 0x21746, size: 0x8, addend: 0x0, symName: __ZSt17__size_to_integerm, symObjAddr: 0x0, symBinAddr: 0x1000067F8, symSize: 0x14 }
...
